Certificate:
    Data:
        Version: 3 (0x2)
        Serial Number: 903804111 (0x35def4cf)
        Signature Algorithm: sha1WithRSAEncryption
        Issuer: C=US, O=Equifax, OU=Equifax Secure Certificate Authority
        Validity
            Not Before: Aug 22 16:41:51 1998 GMT
            Not After : Aug 22 16:41:51 2018 GMT
        Subject: C=US, O=Equifax, OU=Equifax Secure Certificate Authority
        Subject Public Key Info:
            Public Key Algorithm: rsaEncryption
            RSA Public Key: (1024 bit)
                Modulus (1024 bit):
                    00:c1:5d:b1:58:67:08:62:ee:a0:9a:2d:1f:08:6d:
                    91:14:68:98:0a:1e:fe:da:04:6f:13:84:62:21:c3:
                    d1:7c:ce:9f:05:e0:b8:01:f0:4e:34:ec:e2:8a:95:
                    04:64:ac:f1:6b:53:5f:05:b3:cb:67:80:bf:42:02:
                    8e:fe:dd:01:09:ec:e1:00:14:4f:fc:fb:f0:0c:dd:
                    43:ba:5b:2b:e1:1f:80:70:99:15:57:93:16:f1:0f:
                    97:6a:b7:c2:68:23:1c:cc:4d:59:30:ac:51:1e:3b:
                    af:2b:d6:ee:63:45:7b:c5:d9:5f:50:d2:e3:50:0f:
                    3a:88:e7:bf:14:fd:e0:c7:b9
                Exponent: 65537 (0x10001)
        X509v3 extensions:
            X509v3 CRL Distribution Points: 
                DirName:/C=US/O=Equifax/OU=Equifax Secure Certificate Authority/CN=CRL1

            X509v3 Private Key Usage Period: 
                Not After: Aug 22 16:41:51 2018 GMT
            X509v3 Key Usage: 
                Certificate Sign, CRL Sign
            X509v3 Authority Key Identifier: 
                keyid:48:E6:68:F9:2B:D2:B2:95:D7:47:D8:23:20:10:4F:33:98:90:9F:D4

            X509v3 Subject Key Identifier: 
                48:E6:68:F9:2B:D2:B2:95:D7:47:D8:23:20:10:4F:33:98:90:9F:D4
            X509v3 Basic Constraints: 
                CA:TRUE
            1.2.840.113533.7.65.0: 
                0...V3.0c....
    Signature Algorithm: sha1WithRSAEncryption
        58:ce:29:ea:fc:f7:de:b5:ce:02:b9:17:b5:85:d1:b9:e3:e0:
        95:cc:25:31:0d:00:a6:92:6e:7f:b6:92:63:9e:50:95:d1:9a:
        6f:e4:11:de:63:85:6e:98:ee:a8:ff:5a:c8:d3:55:b2:66:71:
        57:de:c0:21:eb:3d:2a:a7:23:49:01:04:86:42:7b:fc:ee:7f:
        a2:16:52:b5:67:67:d3:40:db:3b:26:58:b2:28:77:3d:ae:14:
        77:61:d6:fa:2a:66:27:a0:0d:fa:a7:73:5c:ea:70:f1:94:21:
        65:44:5f:fa:fc:ef:29:68:a9:a2:87:79:ef:79:ef:4f:ac:07:
        77:38
-----BEGIN CERTIFICATE-----
MIIDIDCCAomgAwIBAgIENd70zzANBgkqhkiG9w0BAQUFADBOMQswCQYDVQQGEwJV
UzEQMA4GA1UEChMHRXF1aWZheDEtMCsGA1UECxMkRXF1aWZheCBTZWN1cmUgQ2Vy
dGlmaWNhdGUgQXV0aG9yaXR5MB4XDTk4MDgyMjE2NDE1MVoXDTE4MDgyMjE2NDE1
MVowTjELMAkGA1UEBhMCVVMxEDAOBgNVBAoTB0VxdWlmYXgxLTArBgNVBAsTJEVx
dWlmYXggU2VjdXJlIENlcnRpZmljYXRlIEF1dGhvcml0eTCBnzANBgkqhkiG9w0B
AQEFAAOBjQAwgYkCgYEAwV2xWGcIYu6gmi0fCG2RFGiYCh7+2gRvE4RiIcPRfM6f
BeC4AfBONOziipUEZKzxa1NfBbPLZ4C/QgKO/t0BCezhABRP/PvwDN1Dulsr4R+A
cJkVV5MW8Q+XarfCaCMczE1ZMKxRHjuvK9buY0V7xdlfUNLjUA86iOe/FP3gx7kC
AwEAAaOCAQkwggEFMHAGA1UdHwRpMGcwZaBjoGGkXzBdMQswCQYDVQQGEwJVUzEQ
MA4GA1UEChMHRXF1aWZheDEtMCsGA1UECxMkRXF1aWZheCBTZWN1cmUgQ2VydGlm
aWNhdGUgQXV0aG9yaXR5MQ0wCwYDVQQDEwRDUkwxMBoGA1UdEAQTMBGBDzIwMTgw
ODIyMTY0MTUxWjALBgNVHQ8EBAMCAQYwHwYDVR0jBBgwFoAUSOZo+SvSspXXR9gj
IBBPM5iQn9QwHQYDVR0OBBYEFEjmaPkr0rKV10fYIyAQTzOYkJ/UMAwGA1UdEwQF
MAMBAf8wGgYJKoZIhvZ9B0EABA0wCxsFVjMuMGMDAgbAMA0GCSqGSIb3DQEBBQUA
A4GBAFjOKer89961zgK5F7WF0bnj4JXMJTENAKaSbn+2kmOeUJXRmm/kEd5jhW6Y
7qj/WsjTVbJmcVfewCHrPSqnI0kBBIZCe/zuf6IWUrVnZ9NA2zsmWLIodz2uFHdh
1voqZiegDfqnc1zqcPGUIWVEX/r87yloqaKHee9570+sB3c4
-----END CERTIFICATE-----
Certificate:
    Data:
        Version: 3 (0x2)
        Serial Number: 1227750 (0x12bbe6)
        Signature Algorithm: sha1WithRSAEncryption
        Issuer: C=US, O=Equifax, OU=Equifax Secure Certificate Authority
        Validity
            Not Before: May 21 04:00:00 2002 GMT
            Not After : Aug 21 04:00:00 2018 GMT
        Subject: C=US, O=GeoTrust Inc., CN=GeoTrust Global CA
        Subject Public Key Info:
            Public Key Algorithm: rsaEncryption
            RSA Public Key: (2048 bit)
                Modulus (2048 bit):
                    00:da:cc:18:63:30:fd:f4:17:23:1a:56:7e:5b:df:
                    3c:6c:38:e4:71:b7:78:91:d4:bc:a1:d8:4c:f8:a8:
                    43:b6:03:e9:4d:21:07:08:88:da:58:2f:66:39:29:
                    bd:05:78:8b:9d:38:e8:05:b7:6a:7e:71:a4:e6:c4:
                    60:a6:b0:ef:80:e4:89:28:0f:9e:25:d6:ed:83:f3:
                    ad:a6:91:c7:98:c9:42:18:35:14:9d:ad:98:46:92:
                    2e:4f:ca:f1:87:43:c1:16:95:57:2d:50:ef:89:2d:
                    80:7a:57:ad:f2:ee:5f:6b:d2:00:8d:b9:14:f8:14:
                    15:35:d9:c0:46:a3:7b:72:c8:91:bf:c9:55:2b:cd:
                    d0:97:3e:9c:26:64:cc:df:ce:83:19:71:ca:4e:e6:
                    d4:d5:7b:a9:19:cd:55:de:c8:ec:d2:5e:38:53:e5:
                    5c:4f:8c:2d:fe:50:23:36:fc:66:e6:cb:8e:a4:39:
                    19:00:b7:95:02:39:91:0b:0e:fe:38:2e:d1:1d:05:
                    9a:f6:4d:3e:6f:0f:07:1d:af:2c:1e:8f:60:39:e2:
                    fa:36:53:13:39:d4:5e:26:2b:db:3d:a8:14:bd:32:
                    eb:18:03:28:52:04:71:e5:ab:33:3d:e1:38:bb:07:
                    36:84:62:9c:79:ea:16:30:f4:5f:c0:2b:e8:71:6b:
                    e4:f9
                Exponent: 65537 (0x10001)
        X509v3 extensions:
            X509v3 Authority Key Identifier: 
                keyid:48:E6:68:F9:2B:D2:B2:95:D7:47:D8:23:20:10:4F:33:98:90:9F:D4

            X509v3 Subject Key Identifier: 
                C0:7A:98:68:8D:89:FB:AB:05:64:0C:11:7D:AA:7D:65:B8:CA:CC:4E
            X509v3 Basic Constraints: critical
                CA:TRUE
            X509v3 Key Usage: critical
                Certificate Sign, CRL Sign
            X509v3 CRL Distribution Points: 
                URI:http://crl.geotrust.com/crls/secureca.crl

            X509v3 Certificate Policies: 
                Policy: X509v3 Any Policy
                  CPS: https://www.geotrust.com/resources/repository

    Signature Algorithm: sha1WithRSAEncryption
        76:e1:12:6e:4e:4b:16:12:86:30:06:b2:81:08:cf:f0:08:c7:
        c7:71:7e:66:ee:c2:ed:d4:3b:1f:ff:f0:f0:c8:4e:d6:43:38:
        b0:b9:30:7d:18:d0:55:83:a2:6a:cb:36:11:9c:e8:48:66:a3:
        6d:7f:b8:13:d4:47:fe:8b:5a:5c:73:fc:ae:d9:1b:32:19:38:
        ab:97:34:14:aa:96:d2:eb:a3:1c:14:08:49:b6:bb:e5:91:ef:
        83:36:eb:1d:56:6f:ca:da:bc:73:63:90:e4:7f:7b:3e:22:cb:
        3d:07:ed:5f:38:74:9c:e3:03:50:4e:a1:af:98:ee:61:f2:84:
        3f:12
-----BEGIN CERTIFICATE-----
MIIDfTCCAuagAwIBAgIDErvmMA0GCSqGSIb3DQEBBQUAME4xCzAJBgNVBAYTAlVT
MRAwDgYDVQQKEwdFcXVpZmF4MS0wKwYDVQQLEyRFcXVpZmF4IFNlY3VyZSBDZXJ0
aWZpY2F0ZSBBdXRob3JpdHkwHhcNMDIwNTIxMDQwMDAwWhcNMTgwODIxMDQwMDAw
WjBCMQswCQYDVQQGEwJVUzEWMBQGA1UEChMNR2VvVHJ1c3QgSW5jLjEbMBkGA1UE
AxMSR2VvVHJ1c3QgR2xvYmFsIENBMIIBIjANBgkqhkiG9w0BAQEFAAOCAQ8AMIIB
CgKCAQEA2swYYzD99BcjGlZ+W988bDjkcbd4kdS8odhM+KhDtgPpTSEHCIjaWC9m
OSm9BXiLnTjoBbdqfnGk5sRgprDvgOSJKA+eJdbtg/OtppHHmMlCGDUUna2YRpIu
T8rxh0PBFpVXLVDviS2Aelet8u5fa9IAjbkU+BQVNdnARqN7csiRv8lVK83Qlz6c
JmTM386DGXHKTubU1XupGc1V3sjs0l44U+VcT4wt/lAjNvxm5suOpDkZALeVAjmR
Cw7+OC7RHQWa9k0+bw8HHa8sHo9gOeL6NlMTOdReJivbPagUvTLrGAMoUgRx5asz
PeE4uwc2hGKceeoWMPRfwCvocWvk+QIDAQABo4HwMIHtMB8GA1UdIwQYMBaAFEjm
aPkr0rKV10fYIyAQTzOYkJ/UMB0GA1UdDgQWBBTAephojYn7qwVkDBF9qn1luMrM
TjAPBgNVHRMBAf8EBTADAQH/MA4GA1UdDwEB/wQEAwIBBjA6BgNVHR8EMzAxMC+g
LaArhilodHRwOi8vY3JsLmdlb3RydXN0LmNvbS9jcmxzL3NlY3VyZWNhLmNybDBO
BgNVHSAERzBFMEMGBFUdIAAwOzA5BggrBgEFBQcCARYtaHR0cHM6Ly93d3cuZ2Vv
dHJ1c3QuY29tL3Jlc291cmNlcy9yZXBvc2l0b3J5MA0GCSqGSIb3DQEBBQUAA4GB
AHbhEm5OSxYShjAGsoEIz/AIx8dxfmbuwu3UOx//8PDITtZDOLC5MH0Y0FWDomrL
NhGc6Ehmo21/uBPUR/6LWlxz/K7ZGzIZOKuXNBSqltLroxwUCEm2u+WR74M26x1W
b8ravHNjkOR/ez4iyz0H7V84dJzjA1BOoa+Y7mHyhD8S
-----END CERTIFICATE-----
Certificate:
    Data:
        Version: 3 (0x2)
        Serial Number: 146039 (0x23a77)
        Signature Algorithm: sha256WithRSAEncryption
        Issuer: C=US, O=GeoTrust Inc., CN=GeoTrust Global CA
        Validity
            Not Before: Aug 29 21:39:32 2014 GMT
            Not After : May 20 21:39:32 2022 GMT
        Subject: C=US, O=GeoTrust Inc., CN=RapidSSL SHA256 CA - G3
        Subject Public Key Info:
            Public Key Algorithm: rsaEncryption
            RSA Public Key: (2048 bit)
                Modulus (2048 bit):
                    00:af:54:9b:d9:58:5d:1e:2c:56:c6:d5:e8:7f:f4:
                    7d:16:03:ff:d0:8b:5a:e4:8e:a7:dd:54:2e:d4:04:
                    c0:5d:98:9c:8d:90:0f:bc:10:65:5f:da:9a:d6:44:
                    7c:c0:9f:b5:e9:4a:8c:0b:06:43:04:bb:f4:96:e2:
                    26:f6:61:01:91:66:31:22:c3:34:34:5f:3f:3f:91:
                    2f:44:5f:dc:c7:14:b6:03:9f:86:4b:0e:a3:ff:a0:
                    80:02:83:c3:d3:1f:69:52:d6:9d:64:0f:c9:83:e7:
                    1b:c4:70:ac:94:e7:c3:a4:6a:2c:bd:b8:9e:69:d8:
                    be:0a:8f:16:63:5a:68:71:80:7b:30:de:15:04:bf:
                    cc:d3:bf:3e:48:05:55:7a:b3:d7:10:0c:03:fc:9b:
                    fd:08:a7:8c:8c:db:a7:8e:f1:1e:63:dc:b3:01:2f:
                    7f:af:57:c3:3c:48:a7:83:68:21:a7:2f:e7:a7:3f:
                    f0:b5:0c:fc:f5:84:d1:53:bc:0e:72:4f:60:0c:42:
                    b8:98:ad:19:88:57:d7:04:ec:87:bf:7e:87:4e:a3:
                    21:f9:53:fd:36:98:48:8d:d6:f8:bb:48:f2:29:c8:
                    64:d1:cc:54:48:53:8b:af:b7:65:1e:bf:29:33:29:
                    d9:29:60:48:f8:ff:91:bc:57:58:e5:35:2e:bb:69:
                    b6:59
                Exponent: 65537 (0x10001)
        X509v3 extensions:
            X509v3 Authority Key Identifier: 
                keyid:C0:7A:98:68:8D:89:FB:AB:05:64:0C:11:7D:AA:7D:65:B8:CA:CC:4E

            X509v3 Subject Key Identifier: 
                C3:9C:F3:FC:D3:46:08:34:BB:CE:46:7F:A0:7C:5B:F3:E2:08:CB:59
            X509v3 Basic Constraints: critical
                CA:TRUE, pathlen:0
            X509v3 Key Usage: critical
                Certificate Sign, CRL Sign
            X509v3 CRL Distribution Points: 
                URI:http://g.symcb.com/crls/gtglobal.crl

            Authority Information Access: 
                OCSP - URI:http://g.symcd.com

            X509v3 Certificate Policies: 
                Policy: 2.16.840.1.113733.1.7.54
                  CPS: http://www.geotrust.com/resources/cps

    Signature Algorithm: sha256WithRSAEncryption
        a3:58:1e:c6:43:32:ac:ac:2f:93:78:b7:ea:ae:54:40:47:2d:
        7e:78:8d:50:f6:f8:66:ac:d6:4f:73:d6:44:ef:af:0b:cc:5b:
        c1:f4:4f:9a:8f:49:7e:60:af:c2:27:c7:16:f1:fb:93:81:90:
        a9:7c:ef:6f:7e:6e:45:94:16:84:bd:ec:49:f1:c4:0e:f4:af:
        04:59:83:87:0f:2c:3b:97:c3:5a:12:9b:7b:04:35:7b:a3:95:
        33:08:7b:93:71:22:42:b3:a9:d9:6f:4f:81:92:fc:07:b6:79:
        bc:84:4a:9d:77:09:f1:c5:89:f2:f0:b4:9c:54:aa:12:7b:0d:
        ba:4f:ef:93:19:ec:ef:7d:4e:61:a3:8e:76:9c:59:cf:8c:94:
        b1:84:97:f7:1a:b9:07:b8:b2:c6:4f:13:79:db:bf:4f:51:1b:
        7f:69:0d:51:2a:c1:d6:15:ff:37:51:34:65:51:f4:1e:be:38:
        6a:ec:0e:ab:bf:3d:7b:39:05:7b:f4:f3:fb:1a:a1:d0:c8:7e:
        4e:64:8d:cd:8c:61:55:90:fe:3a:ca:5d:25:0f:f8:1d:a3:4a:
        74:56:4f:1a:55:40:70:75:25:a6:33:2e:ba:4b:a5:5d:53:9a:
        0d:30:e1:8d:5f:61:2c:af:cc:ef:b0:99:a1:80:ff:0b:f2:62:
        4c:70:26:98
-----BEGIN CERTIFICATE-----
MIIEJTCCAw2gAwIBAgIDAjp3MA0GCSqGSIb3DQEBCwUAMEIxCzAJBgNVBAYTAlVT
MRYwFAYDVQQKEw1HZW9UcnVzdCBJbmMuMRswGQYDVQQDExJHZW9UcnVzdCBHbG9i
YWwgQ0EwHhcNMTQwODI5MjEzOTMyWhcNMjIwNTIwMjEzOTMyWjBHMQswCQYDVQQG
EwJVUzEWMBQGA1UEChMNR2VvVHJ1c3QgSW5jLjEgMB4GA1UEAxMXUmFwaWRTU0wg
U0hBMjU2IENBIC0gRzMwggEiMA0GCSqGSIb3DQEBAQUAA4IBDwAwggEKAoIBAQCv
VJvZWF0eLFbG1eh/9H0WA//Qi1rkjqfdVC7UBMBdmJyNkA+8EGVf2prWRHzAn7Xp
SowLBkMEu/SW4ib2YQGRZjEiwzQ0Xz8/kS9EX9zHFLYDn4ZLDqP/oIACg8PTH2lS
1p1kD8mD5xvEcKyU58Okaiy9uJ5p2L4KjxZjWmhxgHsw3hUEv8zTvz5IBVV6s9cQ
DAP8m/0Ip4yM26eO8R5j3LMBL3+vV8M8SKeDaCGnL+enP/C1DPz1hNFTvA5yT2AM
QriYrRmIV9cE7Ie/fodOoyH5U/02mEiN1vi7SPIpyGTRzFRIU4uvt2UevykzKdkp
YEj4/5G8V1jlNS67abZZAgMBAAGjggEdMIIBGTAfBgNVHSMEGDAWgBTAephojYn7
qwVkDBF9qn1luMrMTjAdBgNVHQ4EFgQUw5zz/NNGCDS7zkZ/oHxb8+IIy1kwEgYD
VR0TAQH/BAgwBgEB/wIBADAOBgNVHQ8BAf8EBAMCAQYwNQYDVR0fBC4wLDAqoCig
JoYkaHR0cDovL2cuc3ltY2IuY29tL2NybHMvZ3RnbG9iYWwuY3JsMC4GCCsGAQUF
BwEBBCIwIDAeBggrBgEFBQcwAYYSaHR0cDovL2cuc3ltY2QuY29tMEwGA1UdIARF
MEMwQQYKYIZIAYb4RQEHNjAzMDEGCCsGAQUFBwIBFiVodHRwOi8vd3d3Lmdlb3Ry
dXN0LmNvbS9yZXNvdXJjZXMvY3BzMA0GCSqGSIb3DQEBCwUAA4IBAQCjWB7GQzKs
rC+TeLfqrlRARy1+eI1Q9vhmrNZPc9ZE768LzFvB9E+aj0l+YK/CJ8cW8fuTgZCp
fO9vfm5FlBaEvexJ8cQO9K8EWYOHDyw7l8NaEpt7BDV7o5UzCHuTcSJCs6nZb0+B
kvwHtnm8hEqddwnxxYny8LScVKoSew26T++TGezvfU5ho452nFnPjJSxhJf3GrkH
uLLGTxN5279PURt/aQ1RKsHWFf83UTRlUfQevjhq7A6rvz17OQV79PP7GqHQyH5O
ZI3NjGFVkP46yl0lD/gdo0p0Vk8aVUBwdSWmMy66S6VdU5oNMOGNX2Esr8zvsJmh
gP8L8mJMcCaY
-----END CERTIFICATE-----
