Certificate:
    Data:
        Version: 3 (0x2)
        Serial Number:
            0c:b3:cf:7c:5d:c1:dd:cc:bc:e2:55:c4:62:b9:66:c0
    Signature Algorithm: sha256WithRSAEncryption
        Issuer: C=US, O=DigiCert Inc, OU=www.digicert.com, CN=RapidSSL RSA CA 2018
        Validity
            Not Before: Jan 12 00:00:00 2018 GMT
            Not After : Mar 30 12:00:00 2020 GMT
        Subject: CN=*.instrumentalapp.com
        Subject Public Key Info:
            Public Key Algorithm: rsaEncryption
                Public-Key: (2048 bit)
                Modulus:
                    00:b6:20:44:04:5c:69:fd:70:88:66:05:1b:59:c4:
                    84:ea:25:1e:c5:36:f9:5d:31:8c:d9:dc:c0:03:f3:
                    b1:30:ef:3d:9d:10:18:58:a3:70:1e:67:f9:38:e9:
                    83:6d:c3:e7:01:d8:79:e4:24:8e:30:02:fb:29:e5:
                    c6:bc:5a:12:91:42:4a:31:4d:ec:ba:33:6d:1b:7c:
                    35:ef:5a:b5:27:68:69:24:af:e1:26:18:60:f7:2c:
                    b1:5b:e4:f8:e8:a1:8f:8b:e9:7a:c2:75:13:2c:ac:
                    f3:94:5f:f2:5f:60:19:41:60:52:da:1f:53:95:07:
                    ae:35:70:07:c9:e4:a3:39:eb:91:6d:1d:40:f2:73:
                    43:e3:fd:e9:b8:63:68:58:a9:d4:3e:48:bc:9b:68:
                    bc:9d:c3:94:34:29:fc:27:42:2e:7d:e9:f1:89:69:
                    af:ab:d3:a2:8b:8f:a8:83:06:82:a4:f7:fe:7b:3a:
                    57:26:15:3f:14:b5:cb:16:2d:27:8a:f0:06:0f:19:
                    8b:e4:97:de:b4:96:64:1c:37:51:f3:88:92:4d:55:
                    ed:1d:71:01:3b:00:03:99:50:92:3f:90:14:d4:f1:
                    f4:03:ba:ee:33:0a:60:ab:38:dd:8d:ad:bb:55:68:
                    5a:c7:45:b6:2c:4b:56:a8:af:f4:41:fb:55:5e:c7:
                    2e:8d
                Exponent: 65537 (0x10001)
        X509v3 extensions:
            X509v3 Authority Key Identifier: 
                keyid:53:CA:17:59:FC:6B:C0:03:21:2F:1A:AE:E4:AA:A8:1C:82:56:DA:75

            X509v3 Subject Key Identifier: 
                41:83:11:C8:37:A6:06:DE:A2:88:75:FF:7E:94:06:94:EF:DD:1F:EE
            X509v3 Subject Alternative Name: 
                DNS:*.instrumentalapp.com, DNS:instrumentalapp.com
            X509v3 Key Usage: critical
                Digital Signature, Key Encipherment
            X509v3 Extended Key Usage: 
                TLS Web Server Authentication, TLS Web Client Authentication
            X509v3 CRL Distribution Points: 

                Full Name:
                  URI:http://cdp.rapidssl.com/RapidSSLRSACA2018.crl

            X509v3 Certificate Policies: 
                Policy: 2.16.840.1.114412.1.2
                  CPS: https://www.digicert.com/CPS
                Policy: 2.23.140.1.2.1

            Authority Information Access: 
                OCSP - URI:http://status.rapidssl.com
                CA Issuers - URI:http://cacerts.rapidssl.com/RapidSSLRSACA2018.crt

            X509v3 Basic Constraints: 
                CA:FALSE
    Signature Algorithm: sha256WithRSAEncryption
         b0:2d:f8:b2:40:7e:c4:95:11:c1:e4:09:c8:82:b3:7e:70:37:
         66:5a:17:c3:9a:78:03:20:db:95:21:2b:55:13:11:99:97:03:
         78:97:e0:9c:01:0e:22:43:05:c2:bb:00:e1:12:1d:65:23:51:
         b8:aa:b7:90:36:95:ca:00:fc:3a:71:c8:87:41:90:7c:07:71:
         d4:f6:16:14:0b:22:a9:3b:47:ec:42:59:27:3c:74:77:21:62:
         a9:ab:63:36:b7:aa:c5:43:3a:60:4c:9f:5a:34:73:1f:9b:8b:
         0a:04:d8:57:f8:9f:dd:01:fc:82:ae:36:60:be:7d:9c:52:5e:
         98:aa:8f:ac:31:71:f3:81:86:a9:f3:13:14:5d:ff:18:4e:b4:
         5b:75:45:b4:a8:d5:11:55:31:2c:b8:ac:ec:e3:d6:5f:d2:02:
         de:55:a6:f4:30:1d:59:ed:77:e4:1e:41:1d:37:f6:f7:52:e2:
         87:21:26:8d:c0:30:a4:22:d7:b8:83:a4:74:9c:ef:08:99:28:
         fc:41:3b:07:81:5d:11:ad:59:78:4e:ec:ba:d7:cd:0b:e4:09:
         2c:0b:a5:34:5e:04:94:a5:5c:8d:31:46:5d:98:7f:b1:c3:b5:
         f7:8e:70:e9:fa:bf:79:72:b6:11:f1:25:b3:4b:bd:3d:d6:d4:
         30:7d:d7:1d
-----BEGIN CERTIFICATE-----
MIIExDCCA6ygAwIBAgIQDLPPfF3B3cy84lXEYrlmwDANBgkqhkiG9w0BAQsFADBe
MQswCQYDVQQGEwJVUzEVMBMGA1UEChMMRGlnaUNlcnQgSW5jMRkwFwYDVQQLExB3
d3cuZGlnaWNlcnQuY29tMR0wGwYDVQQDExRSYXBpZFNTTCBSU0EgQ0EgMjAxODAe
Fw0xODAxMTIwMDAwMDBaFw0yMDAzMzAxMjAwMDBaMCAxHjAcBgNVBAMMFSouaW5z
dHJ1bWVudGFsYXBwLmNvbTCCASIwDQYJKoZIhvcNAQEBBQADggEPADCCAQoCggEB
ALYgRARcaf1wiGYFG1nEhOolHsU2+V0xjNncwAPzsTDvPZ0QGFijcB5n+Tjpg23D
5wHYeeQkjjAC+ynlxrxaEpFCSjFN7LozbRt8Ne9atSdoaSSv4SYYYPcssVvk+Oih
j4vpesJ1Eyys85Rf8l9gGUFgUtofU5UHrjVwB8nkoznrkW0dQPJzQ+P96bhjaFip
1D5IvJtovJ3DlDQp/CdCLn3p8Ylpr6vToouPqIMGgqT3/ns6VyYVPxS1yxYtJ4rw
Bg8Zi+SX3rSWZBw3UfOIkk1V7R1xATsAA5lQkj+QFNTx9AO67jMKYKs43Y2tu1Vo
WsdFtixLVqiv9EH7VV7HLo0CAwEAAaOCAbowggG2MB8GA1UdIwQYMBaAFFPKF1n8
a8ADIS8aruSqqByCVtp1MB0GA1UdDgQWBBRBgxHIN6YG3qKIdf9+lAaU790f7jA1
BgNVHREELjAsghUqLmluc3RydW1lbnRhbGFwcC5jb22CE2luc3RydW1lbnRhbGFw
cC5jb20wDgYDVR0PAQH/BAQDAgWgMB0GA1UdJQQWMBQGCCsGAQUFBwMBBggrBgEF
BQcDAjA+BgNVHR8ENzA1MDOgMaAvhi1odHRwOi8vY2RwLnJhcGlkc3NsLmNvbS9S
YXBpZFNTTFJTQUNBMjAxOC5jcmwwTAYDVR0gBEUwQzA3BglghkgBhv1sAQIwKjAo
BggrBgEFBQcCARYcaHR0cHM6Ly93d3cuZGlnaWNlcnQuY29tL0NQUzAIBgZngQwB
AgEwdQYIKwYBBQUHAQEEaTBnMCYGCCsGAQUFBzABhhpodHRwOi8vc3RhdHVzLnJh
cGlkc3NsLmNvbTA9BggrBgEFBQcwAoYxaHR0cDovL2NhY2VydHMucmFwaWRzc2wu
Y29tL1JhcGlkU1NMUlNBQ0EyMDE4LmNydDAJBgNVHRMEAjAAMA0GCSqGSIb3DQEB
CwUAA4IBAQCwLfiyQH7ElRHB5AnIgrN+cDdmWhfDmngDINuVIStVExGZlwN4l+Cc
AQ4iQwXCuwDhEh1lI1G4qreQNpXKAPw6cciHQZB8B3HU9hYUCyKpO0fsQlknPHR3
IWKpq2M2t6rFQzpgTJ9aNHMfm4sKBNhX+J/dAfyCrjZgvn2cUl6Yqo+sMXHzgYap
8xMUXf8YTrRbdUW0qNURVTEsuKzs49Zf0gLeVab0MB1Z7XfkHkEdN/b3UuKHISaN
wDCkIte4g6R0nO8ImSj8QTsHgV0RrVl4Tuy6180L5AksC6U0XgSUpVyNMUZdmH+x
w7X3jnDp+r95crYR8SWzS7091tQwfdcd
-----END CERTIFICATE-----
